	.file	"main.cpp"
	.text
	.section	.text$_Z6printfPKcz,"x"
	.linkonce discard
	.globl	_Z6printfPKcz
	.def	_Z6printfPKcz;	.scl	2;	.type	32;	.endef
	.seh_proc	_Z6printfPKcz
_Z6printfPKcz:
.LFB27:
	pushq	%rbp
	.seh_pushreg	%rbp
	pushq	%rbx
	.seh_pushreg	%rbx
	subq	$56, %rsp
	.seh_stackalloc	56
	leaq	128(%rsp), %rbp
	.seh_setframe	%rbp, 128
	.seh_endprologue
	movq	%rcx, -48(%rbp)
	movq	%rdx, -40(%rbp)
	movq	%r8, -32(%rbp)
	movq	%r9, -24(%rbp)
	leaq	-40(%rbp), %rax
	movq	%rax, -96(%rbp)
	movq	-96(%rbp), %rbx
	movl	$1, %ecx
	movq	__imp___acrt_iob_func(%rip), %rax
	call	*%rax
	movq	%rbx, %r8
	movq	-48(%rbp), %rdx
	movq	%rax, %rcx
	call	__mingw_vfprintf
	movl	%eax, -84(%rbp)
	movl	-84(%rbp), %eax
	addq	$56, %rsp
	popq	%rbx
	popq	%rbp
	ret
	.seh_endproc
	.section .rdata,"dr"
_ZStL19piecewise_construct:
	.space 1
_ZStL13allocator_arg:
	.space 1
_ZStL6ignore:
	.space 1
.lcomm _ZStL8__ioinit,1,1
	.align 4
_ZN9__gnu_cxxL21__default_lock_policyE:
	.long	2
_ZStL10defer_lock:
	.space 1
_ZStL11try_to_lock:
	.space 1
_ZStL10adopt_lock:
	.space 1
	.align 4
_ZNSt15regex_constantsL5icaseE:
	.long	1
	.align 4
_ZNSt15regex_constantsL6nosubsE:
	.long	2
	.align 4
_ZNSt15regex_constantsL8optimizeE:
	.long	4
	.align 4
_ZNSt15regex_constantsL7collateE:
	.long	8
	.align 4
_ZNSt15regex_constantsL10ECMAScriptE:
	.long	16
	.align 4
_ZNSt15regex_constantsL5basicE:
	.long	32
	.align 4
_ZNSt15regex_constantsL8extendedE:
	.long	64
	.align 4
_ZNSt15regex_constantsL3awkE:
	.long	128
	.align 4
_ZNSt15regex_constantsL4grepE:
	.long	256
	.align 4
_ZNSt15regex_constantsL5egrepE:
	.long	512
	.align 4
_ZNSt15regex_constantsL12__polynomialE:
	.long	1024
	.align 4
_ZNSt15regex_constantsL13match_defaultE:
	.space 4
	.align 4
_ZNSt15regex_constantsL13match_not_bolE:
	.long	1
	.align 4
_ZNSt15regex_constantsL13match_not_eolE:
	.long	2
	.align 4
_ZNSt15regex_constantsL13match_not_bowE:
	.long	4
	.align 4
_ZNSt15regex_constantsL13match_not_eowE:
	.long	8
	.align 4
_ZNSt15regex_constantsL9match_anyE:
	.long	16
	.align 4
_ZNSt15regex_constantsL14match_not_nullE:
	.long	32
	.align 4
_ZNSt15regex_constantsL16match_continuousE:
	.long	64
	.align 4
_ZNSt15regex_constantsL16match_prev_availE:
	.long	128
	.align 4
_ZNSt15regex_constantsL14format_defaultE:
	.space 4
	.align 4
_ZNSt15regex_constantsL10format_sedE:
	.long	256
	.align 4
_ZNSt15regex_constantsL14format_no_copyE:
	.long	512
	.align 4
_ZNSt15regex_constantsL17format_first_onlyE:
	.long	1024
	.align 4
_ZNSt15regex_constantsL13error_collateE:
	.space 4
	.align 4
_ZNSt15regex_constantsL11error_ctypeE:
	.long	1
	.align 4
_ZNSt15regex_constantsL12error_escapeE:
	.long	2
	.align 4
_ZNSt15regex_constantsL13error_backrefE:
	.long	3
	.align 4
_ZNSt15regex_constantsL11error_brackE:
	.long	4
	.align 4
_ZNSt15regex_constantsL11error_parenE:
	.long	5
	.align 4
_ZNSt15regex_constantsL11error_braceE:
	.long	6
	.align 4
_ZNSt15regex_constantsL14error_badbraceE:
	.long	7
	.align 4
_ZNSt15regex_constantsL11error_rangeE:
	.long	8
	.align 4
_ZNSt15regex_constantsL11error_spaceE:
	.long	9
	.align 4
_ZNSt15regex_constantsL15error_badrepeatE:
	.long	10
	.align 4
_ZNSt15regex_constantsL16error_complexityE:
	.long	11
	.align 4
_ZNSt15regex_constantsL11error_stackE:
	.long	12
	.align 4
_ZNSt8__detailL19_S_invalid_state_idE:
	.long	-1
	.text
	.globl	_Z4fun1ii
	.def	_Z4fun1ii;	.scl	2;	.type	32;	.endef
	.seh_proc	_Z4fun1ii
_Z4fun1ii:
.LFB8352:
	pushq	%rbp
	.seh_pushreg	%rbp
	movq	%rsp, %rbp
	.seh_setframe	%rbp, 0
	.seh_endprologue
	movl	%ecx, 16(%rbp)
	movl	%edx, 24(%rbp)
	movl	$10, 16(%rbp)
	movl	$20, 24(%rbp)
	nop
	popq	%rbp
	ret
	.seh_endproc
	.globl	_Z4fun2PiS_
	.def	_Z4fun2PiS_;	.scl	2;	.type	32;	.endef
	.seh_proc	_Z4fun2PiS_
_Z4fun2PiS_:
.LFB8353:
	pushq	%rbp
	.seh_pushreg	%rbp
	movq	%rsp, %rbp
	.seh_setframe	%rbp, 0
	.seh_endprologue
	movq	%rcx, 16(%rbp)
	movq	%rdx, 24(%rbp)
	movq	16(%rbp), %rax
	movl	$10, (%rax)
	movq	24(%rbp), %rax
	movl	$20, (%rax)
	nop
	popq	%rbp
	ret
	.seh_endproc
	.def	__main;	.scl	2;	.type	32;	.endef
	.section .rdata,"dr"
.LC0:
	.ascii "A:%d,B:%d\12\0"
.LC1:
	.ascii "A:%x,B:%x\12\0"
.LC2:
	.ascii "pause\0"
	.text
	.globl	main
	.def	main;	.scl	2;	.type	32;	.endef
	.seh_proc	main
main:
.LFB8354:
	pushq	%rbp
	.seh_pushreg	%rbp
	movq	%rsp, %rbp
	.seh_setframe	%rbp, 0
	subq	$64, %rsp
	.seh_stackalloc	64
	.seh_endprologue
	call	__main
	movl	$5, -4(%rbp)
	movl	$6, -8(%rbp)
	movl	$4, %ecx
	call	malloc
	movq	%rax, -16(%rbp)
	movl	$4, %ecx
	call	malloc
	movq	%rax, -24(%rbp)
	movq	-16(%rbp), %rax
	movl	$2, (%rax)
	movq	-24(%rbp), %rax
	movl	$3, (%rax)
	movl	-8(%rbp), %edx
	movl	-4(%rbp), %eax
	movl	%eax, %ecx
	call	_Z4fun1ii
	movq	-24(%rbp), %rdx
	movq	-16(%rbp), %rax
	movq	%rax, %rcx
	call	_Z4fun2PiS_
	movl	-8(%rbp), %edx
	movl	-4(%rbp), %eax
	movl	%edx, %r8d
	movl	%eax, %edx
	leaq	.LC0(%rip), %rcx
	call	_Z6printfPKcz
	movq	-24(%rbp), %rdx
	movq	-16(%rbp), %rax
	movq	%rdx, %r8
	movq	%rax, %rdx
	leaq	.LC1(%rip), %rcx
	call	_Z6printfPKcz
	leaq	.LC2(%rip), %rcx
	call	system
	movl	$0, %eax
	addq	$64, %rsp
	popq	%rbp
	ret
	.seh_endproc
	.def	__tcf_0;	.scl	3;	.type	32;	.endef
	.seh_proc	__tcf_0
__tcf_0:
.LFB9089:
	pushq	%rbp
	.seh_pushreg	%rbp
	movq	%rsp, %rbp
	.seh_setframe	%rbp, 0
	subq	$32, %rsp
	.seh_stackalloc	32
	.seh_endprologue
	leaq	_ZStL8__ioinit(%rip), %rcx
	call	_ZNSt8ios_base4InitD1Ev
	nop
	addq	$32, %rsp
	popq	%rbp
	ret
	.seh_endproc
	.def	_Z41__static_initialization_and_destruction_0ii;	.scl	3;	.type	32;	.endef
	.seh_proc	_Z41__static_initialization_and_destruction_0ii
_Z41__static_initialization_and_destruction_0ii:
.LFB9088:
	pushq	%rbp
	.seh_pushreg	%rbp
	movq	%rsp, %rbp
	.seh_setframe	%rbp, 0
	subq	$32, %rsp
	.seh_stackalloc	32
	.seh_endprologue
	movl	%ecx, 16(%rbp)
	movl	%edx, 24(%rbp)
	cmpl	$1, 16(%rbp)
	jne	.L10
	cmpl	$65535, 24(%rbp)
	jne	.L10
	leaq	_ZStL8__ioinit(%rip), %rcx
	call	_ZNSt8ios_base4InitC1Ev
	leaq	__tcf_0(%rip), %rcx
	call	atexit
.L10:
	nop
	addq	$32, %rsp
	popq	%rbp
	ret
	.seh_endproc
	.def	_GLOBAL__sub_I__Z4fun1ii;	.scl	3;	.type	32;	.endef
	.seh_proc	_GLOBAL__sub_I__Z4fun1ii
_GLOBAL__sub_I__Z4fun1ii:
.LFB9090:
	pushq	%rbp
	.seh_pushreg	%rbp
	movq	%rsp, %rbp
	.seh_setframe	%rbp, 0
	subq	$32, %rsp
	.seh_stackalloc	32
	.seh_endprologue
	movl	$65535, %edx
	movl	$1, %ecx
	call	_Z41__static_initialization_and_destruction_0ii
	nop
	addq	$32, %rsp
	popq	%rbp
	ret
	.seh_endproc
	.section	.ctors,"w"
	.align 8
	.quad	_GLOBAL__sub_I__Z4fun1ii
	.ident	"GCC: (x86_64-win32-seh-rev0, Built by MinGW-W64 project) 8.1.0"
	.def	__mingw_vfprintf;	.scl	2;	.type	32;	.endef
	.def	malloc;	.scl	2;	.type	32;	.endef
	.def	system;	.scl	2;	.type	32;	.endef
	.def	_ZNSt8ios_base4InitD1Ev;	.scl	2;	.type	32;	.endef
	.def	_ZNSt8ios_base4InitC1Ev;	.scl	2;	.type	32;	.endef
	.def	atexit;	.scl	2;	.type	32;	.endef
